; ModuleID = '27/172.c'
source_filename = "27/172.c"
target datalayout = "e-m:e-p270:32:32-p271:32:32-p272:64:64-i64:64-f80:128-n8:16:32:64-S128"
target triple = "x86_64-pc-linux-gnu"

@.str = private unnamed_addr constant [3 x i8] c"%d\00", align 1
@.str.1 = private unnamed_addr constant [10 x i8] c"%lf%lf%lf\00", align 1
@.str.2 = private unnamed_addr constant [17 x i8] c"x1=%.5f;x2=%.5f\0A\00", align 1
@.str.3 = private unnamed_addr constant [29 x i8] c"x1=%.5f+%.5fi;x2=%.5f-%.5fi\0A\00", align 1
@.str.4 = private unnamed_addr constant [12 x i8] c"x1=x2=%.5f\0A\00", align 1

; Function Attrs: noinline nounwind uwtable
define dso_local void @main() #0 {
  %1 = alloca i32, align 4
  %2 = alloca i32, align 4
  %3 = alloca [100 x double], align 16
  %4 = alloca [100 x double], align 16
  %5 = alloca [100 x double], align 16
  %6 = alloca double, align 8
  %7 = alloca double, align 8
  %8 = call i32 (i8*, ...) @__isoc99_scanf(i8* getelementptr inbounds ([3 x i8], [3 x i8]* @.str, i64 0, i64 0), i32* %1)
  store i32 0, i32* %2, align 4
  br label %9

9:                                                ; preds = %24, %0
  %10 = load i32, i32* %2, align 4
  %11 = load i32, i32* %1, align 4
  %12 = icmp slt i32 %10, %11
  br i1 %12, label %13, label %27

13:                                               ; preds = %9
  %14 = load i32, i32* %2, align 4
  %15 = sext i32 %14 to i64
  %16 = getelementptr inbounds [100 x double], [100 x double]* %3, i64 0, i64 %15
  %17 = load i32, i32* %2, align 4
  %18 = sext i32 %17 to i64
  %19 = getelementptr inbounds [100 x double], [100 x double]* %4, i64 0, i64 %18
  %20 = load i32, i32* %2, align 4
  %21 = sext i32 %20 to i64
  %22 = getelementptr inbounds [100 x double], [100 x double]* %5, i64 0, i64 %21
  %23 = call i32 (i8*, ...) @__isoc99_scanf(i8* getelementptr inbounds ([10 x i8], [10 x i8]* @.str.1, i64 0, i64 0), double* %16, double* %19, double* %22)
  br label %24

24:                                               ; preds = %13
  %25 = load i32, i32* %2, align 4
  %26 = add nsw i32 %25, 1
  store i32 %26, i32* %2, align 4
  br label %9

27:                                               ; preds = %9
  store i32 0, i32* %2, align 4
  br label %28

28:                                               ; preds = %242, %27
  %29 = load i32, i32* %2, align 4
  %30 = load i32, i32* %1, align 4
  %31 = icmp slt i32 %29, %30
  br i1 %31, label %32, label %245

32:                                               ; preds = %28
  %33 = load i32, i32* %2, align 4
  %34 = sext i32 %33 to i64
  %35 = getelementptr inbounds [100 x double], [100 x double]* %4, i64 0, i64 %34
  %36 = load double, double* %35, align 8
  %37 = load i32, i32* %2, align 4
  %38 = sext i32 %37 to i64
  %39 = getelementptr inbounds [100 x double], [100 x double]* %4, i64 0, i64 %38
  %40 = load double, double* %39, align 8
  %41 = fmul double %36, %40
  %42 = load i32, i32* %2, align 4
  %43 = sext i32 %42 to i64
  %44 = getelementptr inbounds [100 x double], [100 x double]* %3, i64 0, i64 %43
  %45 = load double, double* %44, align 8
  %46 = fmul double 4.000000e+00, %45
  %47 = load i32, i32* %2, align 4
  %48 = sext i32 %47 to i64
  %49 = getelementptr inbounds [100 x double], [100 x double]* %5, i64 0, i64 %48
  %50 = load double, double* %49, align 8
  %51 = fmul double %46, %50
  %52 = fsub double %41, %51
  %53 = fcmp ogt double %52, 0.000000e+00
  br i1 %53, label %54, label %124

54:                                               ; preds = %32
  %55 = load i32, i32* %2, align 4
  %56 = sext i32 %55 to i64
  %57 = getelementptr inbounds [100 x double], [100 x double]* %4, i64 0, i64 %56
  %58 = load double, double* %57, align 8
  %59 = fneg double %58
  %60 = load i32, i32* %2, align 4
  %61 = sext i32 %60 to i64
  %62 = getelementptr inbounds [100 x double], [100 x double]* %4, i64 0, i64 %61
  %63 = load double, double* %62, align 8
  %64 = load i32, i32* %2, align 4
  %65 = sext i32 %64 to i64
  %66 = getelementptr inbounds [100 x double], [100 x double]* %4, i64 0, i64 %65
  %67 = load double, double* %66, align 8
  %68 = fmul double %63, %67
  %69 = load i32, i32* %2, align 4
  %70 = sext i32 %69 to i64
  %71 = getelementptr inbounds [100 x double], [100 x double]* %3, i64 0, i64 %70
  %72 = load double, double* %71, align 8
  %73 = fmul double 4.000000e+00, %72
  %74 = load i32, i32* %2, align 4
  %75 = sext i32 %74 to i64
  %76 = getelementptr inbounds [100 x double], [100 x double]* %5, i64 0, i64 %75
  %77 = load double, double* %76, align 8
  %78 = fmul double %73, %77
  %79 = fsub double %68, %78
  %80 = call double @sqrt(double %79) #3
  %81 = fadd double %59, %80
  %82 = load i32, i32* %2, align 4
  %83 = sext i32 %82 to i64
  %84 = getelementptr inbounds [100 x double], [100 x double]* %3, i64 0, i64 %83
  %85 = load double, double* %84, align 8
  %86 = fmul double 2.000000e+00, %85
  %87 = fdiv double %81, %86
  store double %87, double* %6, align 8
  %88 = load i32, i32* %2, align 4
  %89 = sext i32 %88 to i64
  %90 = getelementptr inbounds [100 x double], [100 x double]* %4, i64 0, i64 %89
  %91 = load double, double* %90, align 8
  %92 = fneg double %91
  %93 = load i32, i32* %2, align 4
  %94 = sext i32 %93 to i64
  %95 = getelementptr inbounds [100 x double], [100 x double]* %4, i64 0, i64 %94
  %96 = load double, double* %95, align 8
  %97 = load i32, i32* %2, align 4
  %98 = sext i32 %97 to i64
  %99 = getelementptr inbounds [100 x double], [100 x double]* %4, i64 0, i64 %98
  %100 = load double, double* %99, align 8
  %101 = fmul double %96, %100
  %102 = load i32, i32* %2, align 4
  %103 = sext i32 %102 to i64
  %104 = getelementptr inbounds [100 x double], [100 x double]* %3, i64 0, i64 %103
  %105 = load double, double* %104, align 8
  %106 = fmul double 4.000000e+00, %105
  %107 = load i32, i32* %2, align 4
  %108 = sext i32 %107 to i64
  %109 = getelementptr inbounds [100 x double], [100 x double]* %5, i64 0, i64 %108
  %110 = load double, double* %109, align 8
  %111 = fmul double %106, %110
  %112 = fsub double %101, %111
  %113 = call double @sqrt(double %112) #3
  %114 = fsub double %92, %113
  %115 = load i32, i32* %2, align 4
  %116 = sext i32 %115 to i64
  %117 = getelementptr inbounds [100 x double], [100 x double]* %3, i64 0, i64 %116
  %118 = load double, double* %117, align 8
  %119 = fmul double 2.000000e+00, %118
  %120 = fdiv double %114, %119
  store double %120, double* %7, align 8
  %121 = load double, double* %6, align 8
  %122 = load double, double* %7, align 8
  %123 = call i32 (i8*, ...) @printf(i8* getelementptr inbounds ([17 x i8], [17 x i8]* @.str.2, i64 0, i64 0), double %121, double %122)
  br label %241

124:                                              ; preds = %32
  %125 = load i32, i32* %2, align 4
  %126 = sext i32 %125 to i64
  %127 = getelementptr inbounds [100 x double], [100 x double]* %4, i64 0, i64 %126
  %128 = load double, double* %127, align 8
  %129 = load i32, i32* %2, align 4
  %130 = sext i32 %129 to i64
  %131 = getelementptr inbounds [100 x double], [100 x double]* %4, i64 0, i64 %130
  %132 = load double, double* %131, align 8
  %133 = fmul double %128, %132
  %134 = load i32, i32* %2, align 4
  %135 = sext i32 %134 to i64
  %136 = getelementptr inbounds [100 x double], [100 x double]* %3, i64 0, i64 %135
  %137 = load double, double* %136, align 8
  %138 = fmul double 4.000000e+00, %137
  %139 = load i32, i32* %2, align 4
  %140 = sext i32 %139 to i64
  %141 = getelementptr inbounds [100 x double], [100 x double]* %5, i64 0, i64 %140
  %142 = load double, double* %141, align 8
  %143 = fmul double %138, %142
  %144 = fsub double %133, %143
  %145 = fcmp olt double %144, 0.000000e+00
  br i1 %145, label %146, label %226

146:                                              ; preds = %124
  %147 = load i32, i32* %2, align 4
  %148 = sext i32 %147 to i64
  %149 = getelementptr inbounds [100 x double], [100 x double]* %3, i64 0, i64 %148
  %150 = load double, double* %149, align 8
  %151 = fmul double 4.000000e+00, %150
  %152 = load i32, i32* %2, align 4
  %153 = sext i32 %152 to i64
  %154 = getelementptr inbounds [100 x double], [100 x double]* %5, i64 0, i64 %153
  %155 = load double, double* %154, align 8
  %156 = fmul double %151, %155
  %157 = load i32, i32* %2, align 4
  %158 = sext i32 %157 to i64
  %159 = getelementptr inbounds [100 x double], [100 x double]* %4, i64 0, i64 %158
  %160 = load double, double* %159, align 8
  %161 = load i32, i32* %2, align 4
  %162 = sext i32 %161 to i64
  %163 = getelementptr inbounds [100 x double], [100 x double]* %4, i64 0, i64 %162
  %164 = load double, double* %163, align 8
  %165 = fmul double %160, %164
  %166 = fsub double %156, %165
  %167 = call double @sqrt(double %166) #3
  %168 = load i32, i32* %2, align 4
  %169 = sext i32 %168 to i64
  %170 = getelementptr inbounds [100 x double], [100 x double]* %3, i64 0, i64 %169
  %171 = load double, double* %170, align 8
  %172 = fmul double 2.000000e+00, %171
  %173 = fdiv double %167, %172
  store double %173, double* %6, align 8
  %174 = load i32, i32* %2, align 4
  %175 = sext i32 %174 to i64
  %176 = getelementptr inbounds [100 x double], [100 x double]* %3, i64 0, i64 %175
  %177 = load double, double* %176, align 8
  %178 = fmul double 4.000000e+00, %177
  %179 = load i32, i32* %2, align 4
  %180 = sext i32 %179 to i64
  %181 = getelementptr inbounds [100 x double], [100 x double]* %5, i64 0, i64 %180
  %182 = load double, double* %181, align 8
  %183 = fmul double %178, %182
  %184 = load i32, i32* %2, align 4
  %185 = sext i32 %184 to i64
  %186 = getelementptr inbounds [100 x double], [100 x double]* %4, i64 0, i64 %185
  %187 = load double, double* %186, align 8
  %188 = load i32, i32* %2, align 4
  %189 = sext i32 %188 to i64
  %190 = getelementptr inbounds [100 x double], [100 x double]* %4, i64 0, i64 %189
  %191 = load double, double* %190, align 8
  %192 = fmul double %187, %191
  %193 = fsub double %183, %192
  %194 = call double @sqrt(double %193) #3
  %195 = load i32, i32* %2, align 4
  %196 = sext i32 %195 to i64
  %197 = getelementptr inbounds [100 x double], [100 x double]* %3, i64 0, i64 %196
  %198 = load double, double* %197, align 8
  %199 = fmul double 2.000000e+00, %198
  %200 = fdiv double %194, %199
  store double %200, double* %7, align 8
  %201 = load i32, i32* %2, align 4
  %202 = sext i32 %201 to i64
  %203 = getelementptr inbounds [100 x double], [100 x double]* %4, i64 0, i64 %202
  %204 = load double, double* %203, align 8
  %205 = fneg double %204
  %206 = load i32, i32* %2, align 4
  %207 = sext i32 %206 to i64
  %208 = getelementptr inbounds [100 x double], [100 x double]* %3, i64 0, i64 %207
  %209 = load double, double* %208, align 8
  %210 = fmul double 2.000000e+00, %209
  %211 = fdiv double %205, %210
  %212 = load double, double* %6, align 8
  %213 = load i32, i32* %2, align 4
  %214 = sext i32 %213 to i64
  %215 = getelementptr inbounds [100 x double], [100 x double]* %4, i64 0, i64 %214
  %216 = load double, double* %215, align 8
  %217 = fneg double %216
  %218 = load i32, i32* %2, align 4
  %219 = sext i32 %218 to i64
  %220 = getelementptr inbounds [100 x double], [100 x double]* %3, i64 0, i64 %219
  %221 = load double, double* %220, align 8
  %222 = fmul double 2.000000e+00, %221
  %223 = fdiv double %217, %222
  %224 = load double, double* %7, align 8
  %225 = call i32 (i8*, ...) @printf(i8* getelementptr inbounds ([29 x i8], [29 x i8]* @.str.3, i64 0, i64 0), double %211, double %212, double %223, double %224)
  br label %240

226:                                              ; preds = %124
  %227 = load i32, i32* %2, align 4
  %228 = sext i32 %227 to i64
  %229 = getelementptr inbounds [100 x double], [100 x double]* %4, i64 0, i64 %228
  %230 = load double, double* %229, align 8
  %231 = fneg double %230
  %232 = load i32, i32* %2, align 4
  %233 = sext i32 %232 to i64
  %234 = getelementptr inbounds [100 x double], [100 x double]* %3, i64 0, i64 %233
  %235 = load double, double* %234, align 8
  %236 = fmul double 2.000000e+00, %235
  %237 = fdiv double %231, %236
  store double %237, double* %6, align 8
  %238 = load double, double* %6, align 8
  %239 = call i32 (i8*, ...) @printf(i8* getelementptr inbounds ([12 x i8], [12 x i8]* @.str.4, i64 0, i64 0), double %238)
  br label %240

240:                                              ; preds = %226, %146
  br label %241

241:                                              ; preds = %240, %54
  br label %242

242:                                              ; preds = %241
  %243 = load i32, i32* %2, align 4
  %244 = add nsw i32 %243, 1
  store i32 %244, i32* %2, align 4
  br label %28

245:                                              ; preds = %28
  ret void
}

declare dso_local i32 @__isoc99_scanf(i8*, ...) #1

; Function Attrs: nounwind
declare dso_local double @sqrt(double) #2

declare dso_local i32 @printf(i8*, ...) #1


!llvm.module.flags = !{!0}
!llvm.ident = !{!1}

!0 = !{i32 1, !"wchar_size", i32 4}
!1 = !{!"clang version 10.0.0-4ubuntu1 "}
